(dp0
S'P0DMV9'
p1
(dp2
S'biological_process'
p3
(lp4
S'GO:0046034'
p5
aS'GO:0070370'
p6
aS'GO:0034605'
p7
aS'GO:0034599'
p8
aS'GO:0060548'
p9
aS'GO:2001240'
p10
aS'GO:0090084'
p11
aS'GO:0031397'
p12
aS'GO:0010628'
p13
aS'GO:0032757'
p14
aS'GO:0051092'
p15
aS'GO:0070434'
p16
aS'GO:1903265'
p17
aS'GO:0042026'
p18
aS'GO:0050821'
p19
aS'GO:1900034'
p20
aS'GO:0031396'
p21
asS'cellular_component'
p22
(lp23
S'GO:0072562'
p24
aS'GO:0005814'
p25
aS'GO:0005737'
p26
aS'GO:0005829'
p27
aS'GO:0005925'
p28
aS'GO:0016234'
p29
aS'GO:0005654'
p30
aS'GO:0048471'
p31
asS'id'
p32
g1
sS'molecular_function'
p33
(lp34
S'GO:0005524'
p35
aS'GO:0016887'
p36
aS'GO:0042623'
p37
aS'GO:0055131'
p38
aS'GO:0019899'
p39
aS'GO:0001664'
p40
aS'GO:0031072'
p41
aS'GO:0042826'
p42
aS'GO:0044183'
p43
aS'GO:0005102'
p44
aS'GO:0031625'
p45
aS'GO:0051082'
p46
aS'GO:0001618'
p47
asS'name'
p48
S'HSP70.2'
p49
ssS'Q15773'
p50
(dp51
g3
(lp52
S'GO:0006952'
p53
asg22
(lp54
S'GO:0005737'
p55
aS'GO:0016020'
p56
aS'GO:0005634'
p57
asg32
g50
sg33
(lp58
sg48
S'Myelodysplasia-myeloid leukemia factor 2'
p59
ssS'P68363'
p60
(dp61
g3
(lp62
S'GO:0051084'
p63
aS'GO:0051301'
p64
aS'GO:0044267'
p65
aS'GO:0071353'
p66
aS'GO:0030705'
p67
aS'GO:0000226'
p68
aS'GO:0007017'
p69
aS'GO:0006457'
p70
asg22
(lp71
S'GO:0005881'
p72
aS'GO:0070062'
p73
aS'GO:0005874'
p74
aS'GO:0043209'
p75
asg32
g60
sg33
(lp76
S'GO:0003725'
p77
aS'GO:0005525'
p78
aS'GO:0003924'
p79
aS'GO:0005200'
p80
aS'GO:0005198'
p81
aS'GO:0031625'
p82
asg48
S'Tubulin alpha-ubiquitous chain'
p83
ssS'Q9Y3U8'
p84
(dp85
g3
(lp86
S'GO:0034641'
p87
aS'GO:0044267'
p88
aS'GO:0002181'
p89
aS'GO:0010467'
p90
aS'GO:0000184'
p91
aS'GO:0001887'
p92
aS'GO:0016259'
p93
aS'GO:0044281'
p94
aS'GO:0006614'
p95
aS'GO:0006412'
p96
aS'GO:0006414'
p97
aS'GO:0006413'
p98
aS'GO:0006415'
p99
aS'GO:0019058'
p100
aS'GO:0016032'
p101
aS'GO:0019083'
p102
asg22
(lp103
S'GO:0005737'
p104
aS'GO:0005829'
p105
aS'GO:0022625'
p106
aS'GO:0016020'
p107
aS'GO:0005730'
p108
asg32
g84
sg33
(lp109
S'GO:0044822'
p110
aS'GO:0003735'
p111
asg48
S'60S ribosomal protein L36'
p112
ssS'P52597'
p113
(dp114
g3
(lp115
S'GO:0010467'
p116
aS'GO:0000398'
p117
aS'GO:0043484'
p118
aS'GO:0006396'
p119
aS'GO:0008380'
p120
asg22
(lp121
S'GO:0071013'
p122
aS'GO:0005737'
p123
aS'GO:0016020'
p124
aS'GO:0005654'
p125
aS'GO:0005634'
p126
asg32
g113
sg33
(lp127
S'GO:0000166'
p128
aS'GO:0044822'
p129
aS'GO:0003723'
p130
aS'GO:0003727'
p131
asg48
S'Heterogeneous nuclear ribonucleoprotein F, N-terminally processed'
p132
ssS'Q9NYL2'
p133
(dp134
g3
(lp135
S'GO:0007257'
p136
aS'GO:0000186'
p137
aS'GO:0007050'
p138
aS'GO:0000075'
p139
aS'GO:0008219'
p140
aS'GO:0030154'
p141
aS'GO:0008283'
p142
aS'GO:0007010'
p143
aS'GO:0000077'
p144
aS'GO:0035556'
p145
aS'GO:0043065'
p146
aS'GO:0006468'
p147
aS'GO:0009314'
p148
aS'GO:0006950'
p149
asg22
(lp150
S'GO:0005737'
p151
aS'GO:0005634'
p152
asg32
g133
sg33
(lp153
S'GO:0005524'
p154
aS'GO:0000287'
p155
aS'GO:0004709'
p156
aS'GO:0044822'
p157
aS'GO:0004674'
p158
asg48
S'Sterile alpha motif- and leucine zipper-containing kinase AZK'
p159
ssS'P62424'
p160
(dp161
g3
(lp162
S'GO:0034641'
p163
aS'GO:0044267'
p164
aS'GO:0010467'
p165
aS'GO:0000184'
p166
aS'GO:0042254'
p167
aS'GO:0001887'
p168
aS'GO:0016259'
p169
aS'GO:0044281'
p170
aS'GO:0006614'
p171
aS'GO:0006412'
p172
aS'GO:0006414'
p173
aS'GO:0006413'
p174
aS'GO:0006415'
p175
aS'GO:0019058'
p176
aS'GO:0016032'
p177
aS'GO:0019083'
p178
asg22
(lp179
S'GO:0005737'
p180
aS'GO:0005829'
p181
aS'GO:0022625'
p182
aS'GO:0070062'
p183
aS'GO:0005925'
p184
aS'GO:0016020'
p185
aS'GO:0005730'
p186
aS'GO:0005634'
p187
aS'GO:0042788'
p188
asg32
g160
sg33
(lp189
S'GO:0044822'
p190
aS'GO:0003723'
p191
aS'GO:0003735'
p192
asg48
S'Surfeit locus protein 3'
p193
ssS'P26373'
p194
(dp195
g3
(lp196
S'GO:0034641'
p197
aS'GO:0044267'
p198
aS'GO:0010467'
p199
aS'GO:0000184'
p200
aS'GO:0001887'
p201
aS'GO:0016259'
p202
aS'GO:0044281'
p203
aS'GO:0006614'
p204
aS'GO:0006412'
p205
aS'GO:0006414'
p206
aS'GO:0006413'
p207
aS'GO:0006415'
p208
aS'GO:0019058'
p209
aS'GO:0016032'
p210
aS'GO:0019083'
p211
asg22
(lp212
S'GO:0005829'
p213
aS'GO:0022625'
p214
aS'GO:0022626'
p215
aS'GO:0016020'
p216
aS'GO:0005634'
p217
asg32
g194
sg33
(lp218
S'GO:0044822'
p219
aS'GO:0003723'
p220
aS'GO:0003735'
p221
asg48
S'Breast basic conserved protein 1'
p222
ssS'Q9Y5A9'
p223
(dp224
g3
(lp225
S'GO:0006959'
p226
aS'GO:1903679'
p227
aS'GO:0043488'
p228
asg22
(lp229
S'GO:0005737'
p230
aS'GO:0000932'
p231
aS'GO:0005829'
p232
aS'GO:0005634'
p233
asg32
g223
sg33
(lp234
S'GO:1990247'
p235
aS'GO:0044822'
p236
asg48
S'Renal carcinoma antigen NY-REN-2 '
p237
ssS'P62917'
p238
(dp239
g3
(lp240
S'GO:0034641'
p241
aS'GO:0044267'
p242
aS'GO:0002181'
p243
aS'GO:0010467'
p244
aS'GO:0000184'
p245
aS'GO:0001887'
p246
aS'GO:0016259'
p247
aS'GO:0044281'
p248
aS'GO:0006614'
p249
aS'GO:0006412'
p250
aS'GO:0006414'
p251
aS'GO:0006413'
p252
aS'GO:0006415'
p253
aS'GO:0019058'
p254
aS'GO:0016032'
p255
aS'GO:0019083'
p256
asg22
(lp257
S'GO:0005737'
p258
aS'GO:0005829'
p259
aS'GO:0022625'
p260
aS'GO:0005925'
p261
aS'GO:0016020'
p262
aS'GO:0005730'
p263
asg32
g238
sg33
(lp264
S'GO:0044822'
p265
aS'GO:0003723'
p266
aS'GO:0019843'
p267
aS'GO:0003735'
p268
asg48
S'60S ribosomal protein L8'
p269
ssS'P31943'
p270
(dp271
g3
(lp272
S'GO:0010467'
p273
aS'GO:0000398'
p274
aS'GO:0043484'
p275
aS'GO:0006396'
p276
aS'GO:0008380'
p277
asg22
(lp278
S'GO:0071013'
p279
aS'GO:0005737'
p280
aS'GO:0016020'
p281
aS'GO:0005654'
p282
aS'GO:0005634'
p283
asg32
g270
sg33
(lp284
S'GO:0000166'
p285
aS'GO:0044822'
p286
aS'GO:0008266'
p287
aS'GO:0003723'
p288
asg48
S'Heterogeneous nuclear ribonucleoprotein H, N-terminally processed'
p289
ssS'O15371'
p290
(dp291
g3
(lp292
S'GO:0044267'
p293
aS'GO:0001732'
p294
aS'GO:0001731'
p295
aS'GO:0010467'
p296
aS'GO:0006446'
p297
aS'GO:0006412'
p298
aS'GO:0006413'
p299
asg22
(lp300
S'GO:0005829'
p301
aS'GO:0016282'
p302
aS'GO:0033290'
p303
aS'GO:0005852'
p304
aS'GO:0071541'
p305
aS'GO:0016020'
p306
asg32
g290
sg33
(lp307
S'GO:0044822'
p308
aS'GO:0003743'
p309
asg48
S'eIF3 p66'
p310
ssS'P62753'
p311
(dp312
g3
(lp313
S'GO:0006924'
p314
aS'GO:0034641'
p315
aS'GO:0044267'
p316
aS'GO:0048821'
p317
aS'GO:0000082'
p318
aS'GO:0007369'
p319
aS'GO:0010467'
p320
aS'GO:0042593'
p321
aS'GO:0008286'
p322
aS'GO:0007093'
p323
aS'GO:0007067'
p324
aS'GO:0043066'
p325
aS'GO:0000184'
p326
aS'GO:0022605'
p327
aS'GO:0001890'
p328
aS'GO:0043065'
p329
aS'GO:0042274'
p330
aS'GO:0006364'
p331
aS'GO:0001887'
p332
aS'GO:0016259'
p333
aS'GO:0044281'
p334
aS'GO:0006614'
p335
aS'GO:0033077'
p336
aS'GO:0002309'
p337
aS'GO:0031929'
p338
aS'GO:0006412'
p339
aS'GO:0006414'
p340
aS'GO:0006413'
p341
aS'GO:0006415'
p342
aS'GO:0019058'
p343
aS'GO:0016032'
p344
aS'GO:0019083'
p345
asg22
(lp346
S'GO:0044297'
p347
aS'GO:0005737'
p348
aS'GO:0036464'
p349
aS'GO:0005829'
p350
aS'GO:0022627'
p351
aS'GO:0030425'
p352
aS'GO:0030529'
p353
aS'GO:0016020'
p354
aS'GO:0005730'
p355
aS'GO:0005634'
p356
aS'GO:0048471'
p357
aS'GO:0005844'
p358
aS'GO:0015935'
p359
asg32
g311
sg33
(lp360
S'GO:0044822'
p361
aS'GO:0019901'
p362
aS'GO:0003735'
p363
asg48
S'Phosphoprotein NP33'
p364
ssS'A0A087WV66'
p365
(dp366
g3
(lp367
sg22
(lp368
sg32
g365
sg33
(lp369
sg48
S'Antigen KI-67 '
p370
ssS'Q14157'
p371
(dp372
g3
(lp373
S'GO:0007339'
p374
aS'GO:0061484'
p375
asg22
(lp376
S'GO:0031519'
p377
asg32
g371
sg33
(lp378
S'GO:0044822'
p379
asg48
S'Protein NICE-4'
p380
ssS'Q96D09'
p381
(dp382
g3
(lp383
sg22
(lp384
S'GO:0005737'
p385
asg32
g381
sg33
(lp386
S'GO:0001540'
p387
asg48
S'GASP-2'
p388
ssS'Q9Y2X9'
p389
(dp390
g3
(lp391
S'GO:0010172'
p392
aS'GO:0010629'
p393
aS'GO:0000122'
p394
aS'GO:0045892'
p395
aS'GO:0045893'
p396
aS'GO:0048863'
p397
aS'GO:0006351'
p398
asg22
(lp399
S'GO:0005654'
p400
aS'GO:0005634'
p401
asg32
g389
sg33
(lp402
S'GO:0001047'
p403
aS'GO:0046872'
p404
aS'GO:0000978'
p405
aS'GO:0043565'
p406
aS'GO:0003714'
p407
aS'GO:0003700'
p408
aS'GO:0044212'
p409
aS'GO:0001078'
p410
asg48
S'Zinc finger DNA-binding protein 99'
p411
ssS'Q9BUF5'
p412
(dp413
g3
(lp414
S'GO:0051084'
p415
aS'GO:0044267'
p416
aS'GO:0007017'
p417
aS'GO:0006457'
p418
asg22
(lp419
S'GO:0005737'
p420
aS'GO:0070062'
p421
aS'GO:0005874'
p422
aS'GO:0005634'
p423
asg32
g412
sg33
(lp424
S'GO:0005525'
p425
aS'GO:0003924'
p426
aS'GO:0005200'
p427
asg48
S'Tubulin beta class V'
p428
ssS'P62906'
p429
(dp430
g3
(lp431
S'GO:0034641'
p432
aS'GO:0044267'
p433
aS'GO:0010467'
p434
aS'GO:0000184'
p435
aS'GO:0001887'
p436
aS'GO:0016259'
p437
aS'GO:0044281'
p438
aS'GO:0006614'
p439
aS'GO:0006412'
p440
aS'GO:0006414'
p441
aS'GO:0006413'
p442
aS'GO:0006415'
p443
aS'GO:0019058'
p444
aS'GO:0016032'
p445
aS'GO:0019083'
p446
asg22
(lp447
S'GO:0005737'
p448
aS'GO:0005829'
p449
aS'GO:0022625'
p450
aS'GO:0070062'
p451
aS'GO:0005925'
p452
aS'GO:0016020'
p453
aS'GO:0005730'
p454
aS'GO:0005634'
p455
asg32
g429
sg33
(lp456
S'GO:0044822'
p457
aS'GO:0003735'
p458
asg48
S'NEDD-6'
p459
ssS'P83731'
p460
(dp461
g3
(lp462
S'GO:1902626'
p463
aS'GO:0034641'
p464
aS'GO:0044267'
p465
aS'GO:0010467'
p466
aS'GO:0000184'
p467
aS'GO:0000027'
p468
aS'GO:0001887'
p469
aS'GO:0016259'
p470
aS'GO:0044281'
p471
aS'GO:0006614'
p472
aS'GO:0006412'
p473
aS'GO:0006414'
p474
aS'GO:0006413'
p475
aS'GO:0006415'
p476
aS'GO:0019058'
p477
aS'GO:0016032'
p478
aS'GO:0019083'
p479
asg22
(lp480
S'GO:0005737'
p481
aS'GO:0005829'
p482
aS'GO:0022625'
p483
aS'GO:0070062'
p484
aS'GO:0016020'
p485
asg32
g460
sg33
(lp486
S'GO:0044822'
p487
aS'GO:0003723'
p488
aS'GO:0003735'
p489
asg48
S'60S ribosomal protein L30'
p490
ssS'Q6ZRV2'
p491
(dp492
g3
(lp493
S'GO:0031214'
p494
aS'GO:0045104'
p495
aS'GO:0030335'
p496
aS'GO:0044380'
p497
asg22
(lp498
S'GO:0005737'
p499
aS'GO:0005856'
p500
asg32
g491
sg33
(lp501
S'GO:1990254'
p502
aS'GO:0019901'
p503
asg48
S'Protein FAM83H '
p504
ssS'Q5W0B1'
p505
(dp506
g3
(lp507
sg22
(lp508
sg32
g505
sg33
(lp509
S'GO:0008270'
p510
asg48
S'RING finger protein 219'
p511
ssS'Q9H410'
p512
(dp513
g3
(lp514
S'GO:0051301'
p515
aS'GO:0007059'
p516
aS'GO:0000278'
p517
aS'GO:0007067'
p518
aS'GO:0007264'
p519
asg22
(lp520
S'GO:0005737'
p521
aS'GO:0005829'
p522
aS'GO:0000444'
p523
aS'GO:0005634'
p524
asg32
g512
sg33
(lp525
sg48
S'Kinetochore-associated protein DSN1 homolog'
p526
ssS'O75190'
p527
(dp528
g3
(lp529
S'GO:0030036'
p530
aS'GO:0034605'
p531
aS'GO:0060710'
p532
aS'GO:0060717'
p533
aS'GO:0030198'
p534
aS'GO:0045109'
p535
aS'GO:0043154'
p536
aS'GO:0090084'
p537
aS'GO:0045892'
p538
aS'GO:0032781'
p539
aS'GO:0006457'
p540
aS'GO:0034504'
p541
aS'GO:1900034'
p542
aS'GO:0032880'
p543
aS'GO:0060715'
p544
asg22
(lp545
S'GO:0005829'
p546
aS'GO:0016020'
p547
aS'GO:0005654'
p548
aS'GO:0005634'
p549
aS'GO:0048471'
p550
aS'GO:0030018'
p551
asg32
g527
sg33
(lp552
S'GO:0001671'
p553
aS'GO:0051087'
p554
aS'GO:0003677'
p555
aS'GO:0031072'
p556
aS'GO:0051082'
p557
asg48
S'MSJ-1'
p558
ssS'F5GWX5'
p559
(dp560
g3
(lp561
S'GO:0006325'
p562
aS'GO:0006355'
p563
aS'GO:0051225'
p564
asg22
(lp565
S'GO:0005634'
p566
aS'GO:0016581'
p567
asg32
g559
sg33
(lp568
S'GO:0005524'
p569
aS'GO:0008026'
p570
aS'GO:0003677'
p571
aS'GO:0008270'
p572
asg48
S'Chromodomain-helicase-DNA-binding protein 4 '
p573
ssS'Q96PK6'
p574
(dp575
g3
(lp576
S'GO:0006310'
p577
aS'GO:0006281'
p578
aS'GO:0006260'
p579
aS'GO:0042921'
p580
aS'GO:0016575'
p581
aS'GO:0030520'
p582
aS'GO:0046600'
p583
aS'GO:0045944'
p584
aS'GO:0009725'
p585
aS'GO:0060395'
p586
aS'GO:0006351'
p587
asg22
(lp588
S'GO:0030529'
p589
aS'GO:0016592'
p590
aS'GO:0005730'
p591
aS'GO:0005654'
p592
aS'GO:0005667'
p593
asg32
g574
sg33
(lp594
S'GO:0030374'
p595
aS'GO:0000166'
p596
aS'GO:0044822'
p597
aS'GO:0030674'
p598
aS'GO:0003723'
p599
aS'GO:0001104'
p600
asg48
S'SYT-interacting protein'
p601
ssS'Q8NG31'
p602
(dp603
g3
(lp604
S'GO:0001675'
p605
aS'GO:0008608'
p606
aS'GO:0051301'
p607
aS'GO:0034080'
p608
aS'GO:0000278'
p609
aS'GO:0007067'
p610
aS'GO:0010923'
p611
aS'GO:0006334'
p612
aS'GO:0034501'
p613
aS'GO:0007264'
p614
aS'GO:0071173'
p615
asg22
(lp616
S'GO:0001669'
p617
aS'GO:0000777'
p618
aS'GO:0005737'
p619
aS'GO:0005829'
p620
aS'GO:0070062'
p621
aS'GO:0005654'
p622
aS'GO:0005634'
p623
asg32
g602
sg33
(lp624
sg48
S'Protein D40/AF15q14'
p625
ssS'P08670'
p626
(dp627
g3
(lp628
S'GO:0006915'
p629
aS'GO:0014002'
p630
aS'GO:0060020'
p631
aS'GO:0006921'
p632
aS'GO:0045109'
p633
aS'GO:0070307'
p634
aS'GO:0006928'
p635
aS'GO:0030049'
p636
aS'GO:0010977'
p637
aS'GO:0010628'
p638
aS'GO:0012501'
p639
aS'GO:0060395'
p640
aS'GO:0016032'
p641
asg22
(lp642
S'GO:0031252'
p643
aS'GO:0005737'
p644
aS'GO:0005856'
p645
aS'GO:0005829'
p646
aS'GO:0070062'
p647
aS'GO:0005925'
p648
aS'GO:0005882'
p649
aS'GO:0045111'
p650
aS'GO:0043005'
p651
aS'GO:0005777'
p652
aS'GO:0005886'
p653
asg32
g626
sg33
(lp654
S'GO:0003725'
p655
aS'GO:0001948'
p656
aS'GO:0042802'
p657
aS'GO:1990254'
p658
aS'GO:0008022'
p659
aS'GO:0097110'
p660
aS'GO:0005200'
p661
aS'GO:0005212'
p662
asg48
S'Vimentin'
p663
ssS'P40429'
p664
(dp665
g3
(lp666
S'GO:0034641'
p667
aS'GO:0044267'
p668
aS'GO:0071346'
p669
aS'GO:0010467'
p670
aS'GO:1901194'
p671
aS'GO:0017148'
p672
aS'GO:0000184'
p673
aS'GO:0001887'
p674
aS'GO:0016259'
p675
aS'GO:0044281'
p676
aS'GO:0006614'
p677
aS'GO:0006412'
p678
aS'GO:0006414'
p679
aS'GO:0006413'
p680
aS'GO:0006415'
p681
aS'GO:0019058'
p682
aS'GO:0016032'
p683
aS'GO:0019083'
p684
asg22
(lp685
S'GO:0005737'
p686
aS'GO:0005829'
p687
aS'GO:0022625'
p688
aS'GO:0005925'
p689
aS'GO:0097452'
p690
aS'GO:0030529'
p691
aS'GO:0015934'
p692
aS'GO:0016020'
p693
aS'GO:0005730'
p694
aS'GO:0005634'
p695
asg32
g664
sg33
(lp696
S'GO:0003729'
p697
aS'GO:0044822'
p698
aS'GO:0003735'
p699
asg48
S'23 kDa highly basic protein'
p700
ssS'J3QR09'
p701
(dp702
g3
(lp703
S'GO:0006412'
p704
asg22
(lp705
S'GO:0005737'
p706
aS'GO:0005730'
p707
aS'GO:0005840'
p708
asg32
g701
sg33
(lp709
S'GO:0003735'
p710
asg48
S'Ribosomal protein L19 '
p711
ssS'Q9C0K0'
p712
(dp713
g3
(lp714
S'GO:0046632'
p715
aS'GO:0021902'
p716
aS'GO:0003382'
p717
aS'GO:0003334'
p718
aS'GO:0043066'
p719
aS'GO:0008285'
p720
aS'GO:0022008'
p721
aS'GO:0042475'
p722
aS'GO:0071678'
p723
aS'GO:0045944'
p724
aS'GO:0043368'
p725
aS'GO:0031077'
p726
aS'GO:0010837'
p727
aS'GO:0019216'
p728
aS'GO:0045664'
p729
aS'GO:0007165'
p730
aS'GO:0021773'
p731
aS'GO:0033077'
p732
aS'GO:0033153'
p733
aS'GO:0048538'
p734
asg22
(lp735
S'GO:0043005'
p736
aS'GO:0005634'
p737
asg32
g712
sg33
(lp738
S'GO:0046872'
p739
aS'GO:0000978'
p740
aS'GO:0043565'
p741
aS'GO:0044212'
p742
aS'GO:0001077'
p743
asg48
S'hRit1'
p744
ssS'O00567'
p745
(dp746
g3
(lp747
S'GO:0000154'
p748
aS'GO:0006364'
p749
asg22
(lp750
S'GO:0031428'
p751
aS'GO:0005737'
p752
aS'GO:0016020'
p753
aS'GO:0005730'
p754
aS'GO:0005654'
p755
aS'GO:0070761'
p756
aS'GO:0005732'
p757
aS'GO:0032040'
p758
asg32
g745
sg33
(lp759
S'GO:1990226'
p760
aS'GO:0044822'
p761
aS'GO:0003723'
p762
aS'GO:0030515'
p763
asg48
S'Nucleolar protein 5A'
p764
ssS'P52272'
p765
(dp766
g3
(lp767
S'GO:0000380'
p768
aS'GO:1990831'
p769
aS'GO:0071222'
p770
aS'GO:0010467'
p771
aS'GO:0000398'
p772
aS'GO:1904591'
p773
aS'GO:1900182'
p774
aS'GO:0008380'
p775
asg22
(lp776
S'GO:0071013'
p777
aS'GO:0009986'
p778
aS'GO:0070062'
p779
aS'GO:0031012'
p780
aS'GO:0005887'
p781
aS'GO:0016020'
p782
aS'GO:0016363'
p783
aS'GO:0005730'
p784
aS'GO:0005654'
p785
aS'GO:0042382'
p786
aS'GO:0005681'
p787
asg32
g765
sg33
(lp788
S'GO:0000166'
p789
aS'GO:0044822'
p790
aS'GO:0019904'
p791
aS'GO:0003723'
p792
asg48
S'hnRNP M'
p793
ssS'Q8IWC1'
p794
(dp795
g3
(lp796
S'GO:0000226'
p797
aS'GO:0046785'
p798
asg22
(lp799
S'GO:0015629'
p800
aS'GO:0005813'
p801
aS'GO:0005737'
p802
aS'GO:0016020'
p803
aS'GO:0015630'
p804
aS'GO:0005654'
p805
aS'GO:0005634'
p806
aS'GO:0005819'
p807
asg32
g794
sg33
(lp808
S'GO:0008017'
p809
aS'GO:0005198'
p810
aS'GO:0015631'
p811
asg48
S'MAP7 domain-containing protein 3'
p812
ssS'P17066'
p813
(dp814
g3
(lp815
S'GO:0034605'
p816
aS'GO:0042026'
p817
aS'GO:0006986'
p818
asg22
(lp819
S'GO:0072562'
p820
aS'GO:0005814'
p821
aS'GO:0005737'
p822
aS'GO:0005829'
p823
aS'GO:0070062'
p824
asg32
g813
sg33
(lp825
S'GO:0005524'
p826
aS'GO:0042623'
p827
aS'GO:0019899'
p828
aS'GO:0031072'
p829
aS'GO:0051082'
p830
asg48
S"Heat shock 70 kDa protein B'"
p831
ssS'P46821'
p832
(dp833
g3
(lp834
S'GO:0048675'
p835
aS'GO:0009987'
p836
aS'GO:0016358'
p837
aS'GO:0061162'
p838
aS'GO:0001578'
p839
aS'GO:0047497'
p840
aS'GO:0032387'
p841
aS'GO:0045773'
p842
asg22
(lp843
S'GO:0030054'
p844
aS'GO:0005737'
p845
aS'GO:0005829'
p846
aS'GO:0043197'
p847
aS'GO:0005874'
p848
aS'GO:0005875'
p849
aS'GO:0097481'
p850
aS'GO:0001750'
p851
aS'GO:0005886'
p852
asg32
g832
sg33
(lp853
S'GO:0005198'
p854
asg48
S'MAP1 light chain LC1'
p855
ssS'Q8IX01'
p856
(dp857
g3
(lp858
S'GO:0006397'
p859
aS'GO:0008380'
p860
asg22
(lp861
S'GO:0005654'
p862
asg32
g856
sg33
(lp863
S'GO:0044822'
p864
asg48
S'Splicing factor, arginine/serine-rich 14'
p865
ssS'O43823'
p866
(dp867
g3
(lp868
S'GO:0044839'
p869
aS'GO:0045087'
p870
aS'GO:0007076'
p871
aS'GO:0007067'
p872
aS'GO:0031065'
p873
aS'GO:0015031'
p874
aS'GO:0033127'
p875
aS'GO:0006355'
p876
aS'GO:0007165'
p877
aS'GO:0006351'
p878
asg22
(lp879
S'GO:0000793'
p880
aS'GO:0001939'
p881
aS'GO:0005794'
p882
aS'GO:0016020'
p883
aS'GO:0005739'
p884
aS'GO:0016363'
p885
aS'GO:0005654'
p886
aS'GO:0005634'
p887
asg32
g866
sg33
(lp888
S'GO:0003690'
p889
aS'GO:0042826'
p890
aS'GO:0044822'
p891
aS'GO:0034237'
p892
aS'GO:0008270'
p893
asg48
S'AKAP 95'
p894
ssS'Q01813'
p895
(dp896
g3
(lp897
S'GO:0061621'
p898
aS'GO:0005975'
p899
aS'GO:0006002'
p900
aS'GO:0006006'
p901
aS'GO:0098779'
p902
aS'GO:0044281'
p903
asg22
(lp904
S'GO:0005829'
p905
aS'GO:0070062'
p906
aS'GO:0016020'
p907
aS'GO:0005634'
p908
asg32
g895
sg33
(lp909
S'GO:0003872'
p910
aS'GO:0005524'
p911
aS'GO:0046872'
p912
aS'GO:0032403'
p913
asg48
S'Phosphohexokinase '
p914
ssS'P39023'
p915
(dp916
g3
(lp917
S'GO:0034641'
p918
aS'GO:0044267'
p919
aS'GO:0071353'
p920
aS'GO:0010467'
p921
aS'GO:0000184'
p922
aS'GO:0000027'
p923
aS'GO:0001887'
p924
aS'GO:0016259'
p925
aS'GO:0044281'
p926
aS'GO:0006614'
p927
aS'GO:0006412'
p928
aS'GO:0006414'
p929
aS'GO:0006413'
p930
aS'GO:0006415'
p931
aS'GO:0019058'
p932
aS'GO:0016032'
p933
aS'GO:0019083'
p934
asg22
(lp935
S'GO:0005737'
p936
aS'GO:0005829'
p937
aS'GO:0022625'
p938
aS'GO:0070062'
p939
aS'GO:0005925'
p940
aS'GO:0005730'
p941
aS'GO:0005654'
p942
aS'GO:0005634'
p943
asg32
g915
sg33
(lp944
S'GO:0044822'
p945
aS'GO:0003723'
p946
aS'GO:0003735'
p947
asg48
S'TARBP-B'
p948
ssS'P61313'
p949
(dp950
g3
(lp951
S'GO:0034641'
p952
aS'GO:0044267'
p953
aS'GO:0002181'
p954
aS'GO:0010467'
p955
aS'GO:0000184'
p956
aS'GO:0001887'
p957
aS'GO:0016259'
p958
aS'GO:0044281'
p959
aS'GO:0006614'
p960
aS'GO:0006412'
p961
aS'GO:0006414'
p962
aS'GO:0006413'
p963
aS'GO:0006415'
p964
aS'GO:0019058'
p965
aS'GO:0016032'
p966
aS'GO:0019083'
p967
asg22
(lp968
S'GO:0005829'
p969
aS'GO:0022625'
p970
aS'GO:0070062'
p971
aS'GO:0016020'
p972
aS'GO:0005634'
p973
aS'GO:0005840'
p974
asg32
g949
sg33
(lp975
S'GO:0044822'
p976
aS'GO:0003723'
p977
aS'GO:0003735'
p978
asg48
S'60S ribosomal protein L15'
p979
ssS'O00571'
p980
(dp981
g3
(lp982
S'GO:0071243'
p983
aS'GO:0071470'
p984
aS'GO:0007059'
p985
aS'GO:0032508'
p986
aS'GO:0008625'
p987
aS'GO:0045087'
p988
aS'GO:0035556'
p989
aS'GO:0097193'
p990
aS'GO:0042256'
p991
aS'GO:0043066'
p992
aS'GO:0030308'
p993
aS'GO:0043154'
p994
aS'GO:2001243'
p995
aS'GO:0031333'
p996
aS'GO:0017148'
p997
aS'GO:0043065'
p998
aS'GO:0030307'
p999
aS'GO:0071651'
p1000
aS'GO:0043280'
p1001
aS'GO:1900087'
p1002
aS'GO:0010628'
p1003
aS'GO:0032728'
p1004
aS'GO:0045944'
p1005
aS'GO:0045727'
p1006
aS'GO:0045948'
p1007
aS'GO:0045070'
p1008
aS'GO:1903608'
p1009
aS'GO:0009615'
p1010
aS'GO:0010501'
p1011
aS'GO:0034063'
p1012
aS'GO:0006351'
p1013
aS'GO:0006413'
p1014
aS'GO:0016032'
p1015
aS'GO:0016055'
p1016
asg22
(lp1017
S'GO:0005737'
p1018
aS'GO:0010494'
p1019
aS'GO:0070062'
p1020
aS'GO:0005741'
p1021
aS'GO:0016607'
p1022
aS'GO:0005634'
p1023
asg32
g980
sg33
(lp1024
S'GO:0005524'
p1025
aS'GO:0004003'
p1026
aS'GO:0004004'
p1027
aS'GO:0016887'
p1028
aS'GO:0043273'
p1029
aS'GO:0003677'
p1030
aS'GO:0008190'
p1031
aS'GO:0003924'
p1032
aS'GO:0048027'
p1033
aS'GO:0017111'
p1034
aS'GO:0008143'
p1035
aS'GO:0044822'
p1036
aS'GO:0043024'
p1037
aS'GO:0003723'
p1038
aS'GO:0035613'
p1039
aS'GO:0008134'
p1040
aS'GO:0031369'
p1041
asg48
S'HLP2'
p1042
ssS'P62805'
p1043
(dp1044
g3
(lp1045
S'GO:0044267'
p1046
aS'GO:0034080'
p1047
aS'GO:0006325'
p1048
aS'GO:0000183'
p1049
aS'GO:0032776'
p1050
aS'GO:0006281'
p1051
aS'GO:0006335'
p1052
aS'GO:0006336'
p1053
aS'GO:0006302'
p1054
aS'GO:0000724'
p1055
aS'GO:0006303'
p1056
aS'GO:0010467'
p1057
aS'GO:0031047'
p1058
aS'GO:0035574'
p1059
aS'GO:0000278'
p1060
aS'GO:0045814'
p1061
aS'GO:0045653'
p1062
aS'GO:0006334'
p1063
aS'GO:0045815'
p1064
aS'GO:0051290'
p1065
aS'GO:0040029'
p1066
aS'GO:0007264'
p1067
aS'GO:0000723'
p1068
aS'GO:0032200'
p1069
asg22
(lp1070
S'GO:0070062'
p1071
aS'GO:0005576'
p1072
aS'GO:0016020'
p1073
aS'GO:0000228'
p1074
aS'GO:0000784'
p1075
aS'GO:0005654'
p1076
aS'GO:0000786'
p1077
aS'GO:0005634'
p1078
aS'GO:0043234'
p1079
asg32
g1043
sg33
(lp1080
S'GO:0003677'
p1081
aS'GO:0042393'
p1082
aS'GO:0035575'
p1083
aS'GO:0044822'
p1084
aS'GO:0019904'
p1085
asg48
S'Histone H4'
p1086
ssS'Q02878'
p1087
(dp1088
g3
(lp1089
S'GO:0034641'
p1090
aS'GO:0044267'
p1091
aS'GO:0002181'
p1092
aS'GO:0010467'
p1093
aS'GO:0000184'
p1094
aS'GO:0006355'
p1095
aS'GO:0000027'
p1096
aS'GO:0001887'
p1097
aS'GO:0016259'
p1098
aS'GO:0044281'
p1099
aS'GO:0006614'
p1100
aS'GO:0006412'
p1101
aS'GO:0006414'
p1102
aS'GO:0006413'
p1103
aS'GO:0006415'
p1104
aS'GO:0019058'
p1105
aS'GO:0016032'
p1106
aS'GO:0019083'
p1107
asg22
(lp1108
S'GO:0036464'
p1109
aS'GO:0005829'
p1110
aS'GO:0022625'
p1111
aS'GO:0005925'
p1112
aS'GO:0016020'
p1113
aS'GO:0005634'
p1114
asg32
g1087
sg33
(lp1115
S'GO:0003677'
p1116
aS'GO:0044822'
p1117
aS'GO:0003723'
p1118
aS'GO:0003735'
p1119
asg48
S'TaxREB107'
p1120
ssS'O94776'
p1121
(dp1122
g3
(lp1123
S'GO:0043044'
p1124
aS'GO:0006333'
p1125
aS'GO:0006325'
p1126
aS'GO:0006306'
p1127
aS'GO:0000122'
p1128
aS'GO:0045944'
p1129
aS'GO:0010762'
p1130
asg22
(lp1131
S'GO:0000118'
p1132
aS'GO:0016020'
p1133
aS'GO:0000790'
p1134
aS'GO:0005654'
p1135
aS'GO:0016581'
p1136
aS'GO:0043234'
p1137
aS'GO:0005667'
p1138
asg32
g1121
sg33
(lp1139
S'GO:0003682'
p1140
aS'GO:0004407'
p1141
aS'GO:0001103'
p1142
aS'GO:0001085'
p1143
aS'GO:0043565'
p1144
aS'GO:0003700'
p1145
aS'GO:0000989'
p1146
aS'GO:0044212'
p1147
aS'GO:0008270'
p1148
asg48
S'p53 target protein in deacetylase complex'
p1149
ssS'Q00839'
p1150
(dp1151
g3
(lp1152
S'GO:0071549'
p1153
aS'GO:0032922'
p1154
aS'GO:0070934'
p1155
aS'GO:0010467'
p1156
aS'GO:0000398'
p1157
aS'GO:0032211'
p1158
aS'GO:0001649'
p1159
aS'GO:2000373'
p1160
aS'GO:0010628'
p1161
aS'GO:0006396'
p1162
aS'GO:0008380'
p1163
asg22
(lp1164
S'GO:0071013'
p1165
aS'GO:0009986'
p1166
aS'GO:0070937'
p1167
aS'GO:0036464'
p1168
aS'GO:0030529'
p1169
aS'GO:0016020'
p1170
aS'GO:0005654'
p1171
aS'GO:0005634'
p1172
asg32
g1150
sg33
(lp1173
S'GO:0005524'
p1174
aS'GO:0001047'
p1175
aS'GO:0003677'
p1176
aS'GO:0035326'
p1177
aS'GO:0044822'
p1178
aS'GO:0034046'
p1179
aS'GO:0043021'
p1180
aS'GO:0003723'
p1181
aS'GO:0070034'
p1182
asg48
S'pp120'
p1183
ssS'Q13263'
p1184
(dp1185
g3
(lp1186
S'GO:0016568'
p1187
aS'GO:0060028'
p1188
aS'GO:0043045'
p1189
aS'GO:0006281'
p1190
aS'GO:0007566'
p1191
aS'GO:0060669'
p1192
aS'GO:0001837'
p1193
aS'GO:0010467'
p1194
aS'GO:0045087'
p1195
aS'GO:1901536'
p1196
aS'GO:0045892'
p1197
aS'GO:1902187'
p1198
aS'GO:0045739'
p1199
aS'GO:0090309'
p1200
aS'GO:0042993'
p1201
aS'GO:0045893'
p1202
aS'GO:0046777'
p1203
aS'GO:0051259'
p1204
aS'GO:0016925'
p1205
aS'GO:0016567'
p1206
aS'GO:0007265'
p1207
aS'GO:2000653'
p1208
aS'GO:0006367'
p1209
asg22
(lp1210
S'GO:0005719'
p1211
aS'GO:0005720'
p1212
aS'GO:0005654'
p1213
aS'GO:0005634'
p1214
aS'GO:0090575'
p1215
asg32
g1184
sg33
(lp1216
S'GO:0070087'
p1217
aS'GO:0003677'
p1218
aS'GO:0035851'
p1219
aS'GO:0016874'
p1220
aS'GO:0044822'
p1221
aS'GO:1990841'
p1222
aS'GO:0004672'
p1223
aS'GO:0001105'
p1224
aS'GO:0043565'
p1225
aS'GO:0003714'
p1226
aS'GO:0003700'
p1227
aS'GO:0031625'
p1228
aS'GO:0004842'
p1229
aS'GO:0008270'
p1230
asg48
S'Tripartite motif-containing protein 28'
p1231
ssS'P27635'
p1232
(dp1233
g3
(lp1234
S'GO:0034641'
p1235
aS'GO:0044267'
p1236
aS'GO:0010467'
p1237
aS'GO:0000184'
p1238
aS'GO:0000027'
p1239
aS'GO:0001887'
p1240
aS'GO:0016259'
p1241
aS'GO:0044281'
p1242
aS'GO:0006614'
p1243
aS'GO:0006412'
p1244
aS'GO:0006414'
p1245
aS'GO:0006413'
p1246
aS'GO:0006415'
p1247
aS'GO:0019058'
p1248
aS'GO:0016032'
p1249
aS'GO:0019083'
p1250
asg22
(lp1251
S'GO:0005829'
p1252
aS'GO:0022625'
p1253
aS'GO:0005783'
p1254
aS'GO:0016020'
p1255
asg32
g1232
sg33
(lp1256
S'GO:0044822'
p1257
aS'GO:0003735'
p1258
asg48
S'Tumor suppressor QM'
p1259
ssS'Q9ULX6'
p1260
(dp1261
g3
(lp1262
S'GO:0044839'
p1263
aS'GO:0007076'
p1264
aS'GO:0006397'
p1265
aS'GO:0051081'
p1266
aS'GO:0031065'
p1267
aS'GO:0045944'
p1268
aS'GO:0033127'
p1269
aS'GO:0010793'
p1270
aS'GO:0008380'
p1271
aS'GO:0006351'
p1272
asg22
(lp1273
S'GO:0000785'
p1274
aS'GO:0005737'
p1275
aS'GO:0016363'
p1276
aS'GO:0016607'
p1277
aS'GO:0005654'
p1278
aS'GO:0005634'
p1279
asg32
g1260
sg33
(lp1280
S'GO:0017151'
p1281
aS'GO:0003677'
p1282
aS'GO:0042826'
p1283
aS'GO:0005521'
p1284
aS'GO:0046872'
p1285
aS'GO:0044822'
p1286
asg48
S'Neighbor of AKAP95'
p1287
ssS'Q07020'
p1288
(dp1289
g3
(lp1290
S'GO:0034641'
p1291
aS'GO:0044267'
p1292
aS'GO:0010467'
p1293
aS'GO:0000184'
p1294
aS'GO:0001887'
p1295
aS'GO:0016259'
p1296
aS'GO:0044281'
p1297
aS'GO:0006614'
p1298
aS'GO:0006412'
p1299
aS'GO:0006414'
p1300
aS'GO:0006413'
p1301
aS'GO:0006415'
p1302
aS'GO:0019058'
p1303
aS'GO:0016032'
p1304
aS'GO:0019083'
p1305
asg22
(lp1306
S'GO:0005737'
p1307
aS'GO:0005829'
p1308
aS'GO:0022625'
p1309
aS'GO:0005925'
p1310
aS'GO:0016020'
p1311
aS'GO:0005730'
p1312
aS'GO:0005634'
p1313
asg32
g1288
sg33
(lp1314
S'GO:0003723'
p1315
aS'GO:0003735'
p1316
asg48
S'60S ribosomal protein L18'
p1317
ssS'M0QXA7'
p1318
(dp1319
g3
(lp1320
sg22
(lp1321
sg32
g1318
sg33
(lp1322
S'GO:0046872'
p1323
asg48
S'Protein Wiz '
p1324
ssS'P11142'
p1325
(dp1326
g3
(lp1327
S'GO:0046034'
p1328
aS'GO:0007411'
p1329
aS'GO:0034605'
p1330
aS'GO:0009267'
p1331
aS'GO:0051085'
p1332
aS'GO:0061684'
p1333
aS'GO:1904764'
p1334
aS'GO:0061741'
p1335
aS'GO:0072318'
p1336
aS'GO:0010467'
p1337
aS'GO:0061738'
p1338
aS'GO:0061024'
p1339
aS'GO:0000398'
p1340
aS'GO:1902904'
p1341
aS'GO:0045892'
p1342
aS'GO:0007269'
p1343
aS'GO:0048026'
p1344
aS'GO:0006892'
p1345
aS'GO:0006457'
p1346
aS'GO:0042026'
p1347
aS'GO:0006622'
p1348
aS'GO:0061740'
p1349
aS'GO:0051726'
p1350
aS'GO:1900034'
p1351
aS'GO:0043488'
p1352
aS'GO:0043254'
p1353
aS'GO:0061635'
p1354
aS'GO:1904589'
p1355
aS'GO:0031647'
p1356
aS'GO:0006986'
p1357
aS'GO:0008380'
p1358
aS'GO:0007268'
p1359
aS'GO:0006351'
p1360
aS'GO:0016032'
p1361
asg22
(lp1362
S'GO:0072562'
p1363
aS'GO:0061202'
p1364
aS'GO:0005829'
p1365
aS'GO:0070062'
p1366
aS'GO:0005615'
p1367
aS'GO:0005925'
p1368
aS'GO:0005622'
p1369
aS'GO:0030529'
p1370
aS'GO:0005770'
p1371
aS'GO:0098575'
p1372
aS'GO:0043202'
p1373
aS'GO:0005765'
p1374
aS'GO:0042470'
p1375
aS'GO:0016020'
p1376
aS'GO:0043209'
p1377
aS'GO:0005730'
p1378
aS'GO:0005654'
p1379
aS'GO:0005634'
p1380
aS'GO:0005886'
p1381
aS'GO:0098793'
p1382
aS'GO:0000974'
p1383
aS'GO:0005681'
p1384
asg32
g1325
sg33
(lp1385
S'GO:0005524'
p1386
aS'GO:0016887'
p1387
aS'GO:0042623'
p1388
aS'GO:0055131'
p1389
aS'GO:0019899'
p1390
aS'GO:0001664'
p1391
aS'GO:0031072'
p1392
aS'GO:0023026'
p1393
aS'GO:0001786'
p1394
aS'GO:0044822'
p1395
aS'GO:0031625'
p1396
aS'GO:0051082'
p1397
asg48
S'LPS-associated protein 1'
p1398
ssS'O14974'
p1399
(dp1400
g3
(lp1401
S'GO:0035690'
p1402
aS'GO:0051297'
p1403
aS'GO:0000086'
p1404
aS'GO:0000278'
p1405
aS'GO:0007067'
p1406
aS'GO:0043086'
p1407
aS'GO:0035508'
p1408
aS'GO:0045944'
p1409
aS'GO:0006470'
p1410
aS'GO:0030155'
p1411
aS'GO:0035507'
p1412
aS'GO:0046822'
p1413
aS'GO:0007264'
p1414
asg22
(lp1415
S'GO:0031672'
p1416
aS'GO:0015629'
p1417
aS'GO:0005813'
p1418
aS'GO:0043292'
p1419
aS'GO:0005737'
p1420
aS'GO:0005829'
p1421
aS'GO:0005925'
p1422
aS'GO:0000776'
p1423
aS'GO:0005654'
p1424
aS'GO:0072357'
p1425
aS'GO:0030018'
p1426
asg32
g1399
sg33
(lp1427
S'GO:0071889'
p1428
aS'GO:0004857'
p1429
aS'GO:0019208'
p1430
aS'GO:0004721'
p1431
aS'GO:0019901'
p1432
aS'GO:0004871'
p1433
asg48
S'Protein phosphatase myosin-binding subunit'
p1434
ssS'G3XAC6'
p1435
(dp1436
g3
(lp1437
S'GO:0006397'
p1438
asg22
(lp1439
S'GO:0005634'
p1440
asg32
g1435
sg33
(lp1441
S'GO:0000166'
p1442
aS'GO:0003723'
p1443
asg48
S'RNA-binding region (RNP1, RRM) containing 2, isoform CRA_f '
p1444
ssS'P49207'
p1445
(dp1446
g3
(lp1447
S'GO:0034641'
p1448
aS'GO:0044267'
p1449
aS'GO:0010467'
p1450
aS'GO:0000184'
p1451
aS'GO:0042254'
p1452
aS'GO:0001887'
p1453
aS'GO:0016259'
p1454
aS'GO:0044281'
p1455
aS'GO:0006614'
p1456
aS'GO:0006412'
p1457
aS'GO:0006414'
p1458
aS'GO:0006413'
p1459
aS'GO:0006415'
p1460
aS'GO:0019058'
p1461
aS'GO:0016032'
p1462
aS'GO:0019083'
p1463
asg22
(lp1464
S'GO:0005737'
p1465
aS'GO:0005829'
p1466
aS'GO:0022625'
p1467
aS'GO:0070062'
p1468
aS'GO:0005739'
p1469
aS'GO:0005730'
p1470
asg32
g1445
sg33
(lp1471
S'GO:0003723'
p1472
aS'GO:0003735'
p1473
asg48
S'60S ribosomal protein L34'
p1474
ssS'Q5SW79'
p1475
(dp1476
g3
(lp1477
sg22
(lp1478
S'GO:0005814'
p1479
aS'GO:0005813'
p1480
aS'GO:0005737'
p1481
aS'GO:0005874'
p1482
aS'GO:0031965'
p1483
aS'GO:0005819'
p1484
asg32
g1475
sg33
(lp1485
sg48
S'KARP1-binding protein'
p1486
ssS'O95229'
p1487
(dp1488
g3
(lp1489
S'GO:0051301'
p1490
aS'GO:0051649'
p1491
aS'GO:0000278'
p1492
aS'GO:0007093'
p1493
aS'GO:0000070'
p1494
aS'GO:0007264'
p1495
asg22
(lp1496
S'GO:0000777'
p1497
aS'GO:0005737'
p1498
aS'GO:0005829'
p1499
aS'GO:0030425'
p1500
aS'GO:0000776'
p1501
aS'GO:0005634'
p1502
asg32
g1487
sg33
(lp1503
S'GO:0047485'
p1504
asg48
S'Zwint-1'
p1505
ssS'O14776'
p1506
(dp1507
g3
(lp1508
S'GO:0000122'
p1509
aS'GO:0006366'
p1510
asg22
(lp1511
S'GO:0015629'
p1512
aS'GO:0005730'
p1513
aS'GO:0005634'
p1514
asg32
g1506
sg33
(lp1515
S'GO:0044822'
p1516
aS'GO:0001103'
p1517
aS'GO:0001106'
p1518
aS'GO:0003713'
p1519
asg48
S'Transcription factor CA150'
p1520
ssS'P18077'
p1521
(dp1522
g3
(lp1523
S'GO:0034641'
p1524
aS'GO:0044267'
p1525
aS'GO:0002181'
p1526
aS'GO:0010467'
p1527
aS'GO:0000184'
p1528
aS'GO:0042273'
p1529
aS'GO:0006364'
p1530
aS'GO:0001887'
p1531
aS'GO:0016259'
p1532
aS'GO:0044281'
p1533
aS'GO:0006614'
p1534
aS'GO:0006412'
p1535
aS'GO:0006414'
p1536
aS'GO:0006413'
p1537
aS'GO:0006415'
p1538
aS'GO:0019058'
p1539
aS'GO:0016032'
p1540
aS'GO:0019083'
p1541
asg22
(lp1542
S'GO:0005829'
p1543
aS'GO:0022625'
p1544
aS'GO:0070062'
p1545
aS'GO:0016020'
p1546
aS'GO:0005739'
p1547
asg32
g1521
sg33
(lp1548
S'GO:0044822'
p1549
aS'GO:0003735'
p1550
aS'GO:0000049'
p1551
asg48
S'Cell growth-inhibiting gene 33 protein'
p1552
ssS'P62266'
p1553
(dp1554
g3
(lp1555
S'GO:0034641'
p1556
aS'GO:0044267'
p1557
aS'GO:0010467'
p1558
aS'GO:0000184'
p1559
aS'GO:0001887'
p1560
aS'GO:0016259'
p1561
aS'GO:0044281'
p1562
aS'GO:0006614'
p1563
aS'GO:0006412'
p1564
aS'GO:0006414'
p1565
aS'GO:0006413'
p1566
aS'GO:0006415'
p1567
aS'GO:0019058'
p1568
aS'GO:0016032'
p1569
aS'GO:0019083'
p1570
asg22
(lp1571
S'GO:0005737'
p1572
aS'GO:0005829'
p1573
aS'GO:0022627'
p1574
aS'GO:0016020'
p1575
aS'GO:0005730'
p1576
aS'GO:0005840'
p1577
asg32
g1553
sg33
(lp1578
S'GO:0044822'
p1579
aS'GO:0003735'
p1580
asg48
S'40S ribosomal protein S23'
p1581
ssS'Q09028'
p1582
(dp1583
g3
(lp1584
S'GO:0043044'
p1585
aS'GO:0034080'
p1586
aS'GO:0031497'
p1587
aS'GO:0006325'
p1588
aS'GO:0006338'
p1589
aS'GO:0006260'
p1590
aS'GO:0006335'
p1591
aS'GO:0006336'
p1592
aS'GO:0000086'
p1593
aS'GO:0010467'
p1594
aS'GO:0000278'
p1595
aS'GO:0008285'
p1596
aS'GO:0045814'
p1597
aS'GO:0006334'
p1598
aS'GO:0051726'
p1599
aS'GO:0040029'
p1600
aS'GO:0006355'
p1601
aS'GO:0006351'
p1602
asg22
(lp1603
S'GO:0033186'
p1604
aS'GO:0035098'
p1605
aS'GO:0000790'
p1606
aS'GO:0005654'
p1607
aS'GO:0005634'
p1608
aS'GO:0016581'
p1609
aS'GO:0016589'
p1610
aS'GO:0043234'
p1611
aS'GO:0016580'
p1612
asg32
g1582
sg33
(lp1613
S'GO:0042393'
p1614
aS'GO:0042826'
p1615
asg48
S'Retinoblastoma-binding protein p48'
p1616
ssS'Q92841'
p1617
(dp1618
g3
(lp1619
S'GO:0033148'
p1620
aS'GO:0045944'
p1621
aS'GO:2001014'
p1622
aS'GO:0006396'
p1623
aS'GO:0010501'
p1624
aS'GO:0006351'
p1625
asg22
(lp1626
S'GO:0016020'
p1627
aS'GO:0005730'
p1628
aS'GO:0005654'
p1629
aS'GO:0005634'
p1630
asg32
g1617
sg33
(lp1631
S'GO:0005524'
p1632
aS'GO:0004004'
p1633
aS'GO:0030331'
p1634
aS'GO:0044822'
p1635
aS'GO:0003723'
p1636
aS'GO:0003724'
p1637
aS'GO:0008186'
p1638
aS'GO:0003713'
p1639
asg48
S'RNA-dependent helicase p72'
p1640
ssS'P17844'
p1641
(dp1642
g3
(lp1643
S'GO:0016049'
p1644
aS'GO:0072332'
p1645
aS'GO:0000398'
p1646
aS'GO:0009299'
p1647
aS'GO:0000122'
p1648
aS'GO:0043517'
p1649
aS'GO:0033148'
p1650
aS'GO:0045944'
p1651
aS'GO:0000381'
p1652
aS'GO:0060765'
p1653
aS'GO:0045667'
p1654
aS'GO:2001014'
p1655
aS'GO:0045069'
p1656
aS'GO:0048511'
p1657
aS'GO:0010501'
p1658
asg22
(lp1659
S'GO:0071013'
p1660
aS'GO:0070062'
p1661
aS'GO:0030529'
p1662
aS'GO:0016020'
p1663
aS'GO:0005730'
p1664
aS'GO:0005654'
p1665
aS'GO:0005634'
p1666
asg32
g1641
sg33
(lp1667
S'GO:0050681'
p1668
aS'GO:0005524'
p1669
aS'GO:0004004'
p1670
aS'GO:0030331'
p1671
aS'GO:0044822'
p1672
aS'GO:0036002'
p1673
aS'GO:0003724'
p1674
aS'GO:0003713'
p1675
asg48
S'RNA helicase p68'
p1676
ssS'Q5BKZ1'
p1677
(dp1678
g3
(lp1679
S'GO:0006397'
p1680
aS'GO:0032784'
p1681
aS'GO:0008380'
p1682
aS'GO:0006351'
p1683
asg22
(lp1684
S'GO:0044609'
p1685
aS'GO:0043231'
p1686
aS'GO:0016363'
p1687
aS'GO:0005654'
p1688
asg32
g1677
sg33
(lp1689
S'GO:0003677'
p1690
aS'GO:0046872'
p1691
aS'GO:0044822'
p1692
aS'GO:0000993'
p1693
asg48
S'Zinc finger protein interacting with mRNPs and DBC1'
p1694
ssS'Q7Z589'
p1695
(dp1696
g3
(lp1697
S'GO:0016568'
p1698
aS'GO:0006281'
p1699
aS'GO:0006355'
p1700
aS'GO:0006351'
p1701
asg22
(lp1702
S'GO:0005654'
p1703
asg32
g1695
sg33
(lp1704
sg48
S'BRCA2-interacting transcriptional repressor EMSY '
p1705
ssS'P18583'
p1706
(dp1707
g3
(lp1708
S'GO:0000910'
p1709
aS'GO:0000226'
p1710
aS'GO:0006397'
p1711
aS'GO:0043066'
p1712
aS'GO:0051726'
p1713
aS'GO:0043484'
p1714
aS'GO:0008380'
p1715
asg22
(lp1716
S'GO:0016607'
p1717
aS'GO:0005654'
p1718
asg32
g1706
sg33
(lp1719
S'GO:0003677'
p1720
aS'GO:0003676'
p1721
aS'GO:0044822'
p1722
aS'GO:0003723'
p1723
asg48
S'SON3'
p1724
ssS'P52701'
p1725
(dp1726
g3
(lp1727
S'GO:0008340'
p1728
aS'GO:0006281'
p1729
aS'GO:0097193'
p1730
aS'GO:0008630'
p1731
aS'GO:0045190'
p1732
aS'GO:0000710'
p1733
aS'GO:0006298'
p1734
aS'GO:0045910'
p1735
aS'GO:0051096'
p1736
aS'GO:0045830'
p1737
aS'GO:0009411'
p1738
aS'GO:0016446'
p1739
aS'GO:0016447'
p1740
aS'GO:0016032'
p1741
asg22
(lp1742
S'GO:0005737'
p1743
aS'GO:0005794'
p1744
aS'GO:0043231'
p1745
aS'GO:0032301'
p1746
aS'GO:0000790'
p1747
aS'GO:0005654'
p1748
aS'GO:0005886'
p1749
asg32
g1725
sg33
(lp1750
S'GO:0005524'
p1751
aS'GO:0003682'
p1752
aS'GO:0003684'
p1753
aS'GO:0032137'
p1754
aS'GO:0035064'
p1755
aS'GO:0030983'
p1756
asg48
S'p160'
p1757
ssS'O95983'
p1758
(dp1759
g3
(lp1760
S'GO:0007568'
p1761
aS'GO:0043044'
p1762
aS'GO:0007420'
p1763
aS'GO:0006325'
p1764
aS'GO:0048568'
p1765
aS'GO:0007507'
p1766
aS'GO:0016573'
p1767
aS'GO:0001701'
p1768
aS'GO:0006346'
p1769
aS'GO:0000122'
p1770
aS'GO:0044030'
p1771
aS'GO:0032355'
p1772
aS'GO:0031667'
p1773
aS'GO:0009888'
p1774
aS'GO:0006351'
p1775
asg22
(lp1776
S'GO:0005737'
p1777
aS'GO:0000792'
p1778
aS'GO:0000790'
p1779
aS'GO:0005654'
p1780
aS'GO:0016581'
p1781
aS'GO:0043234'
p1782
asg32
g1758
sg33
(lp1783
S'GO:0003682'
p1784
aS'GO:0003677'
p1785
aS'GO:0008327'
p1786
asg48
S'Methyl-CpG-binding protein MBD3'
p1787
ssS'P63167'
p1788
(dp1789
g3
(lp1790
S'GO:0030036'
p1791
aS'GO:0009653'
p1792
aS'GO:0019886'
p1793
aS'GO:0006915'
p1794
aS'GO:0044267'
p1795
aS'GO:0060271'
p1796
aS'GO:0006888'
p1797
aS'GO:0007292'
p1798
aS'GO:0000086'
p1799
aS'GO:0035721'
p1800
aS'GO:0097193'
p1801
aS'GO:0016236'
p1802
aS'GO:0061024'
p1803
aS'GO:0000278'
p1804
aS'GO:0042326'
p1805
aS'GO:0006996'
p1806
aS'GO:1900740'
p1807
aS'GO:0043687'
p1808
aS'GO:0012501'
p1809
aS'GO:0018279'
p1810
aS'GO:0006355'
p1811
aS'GO:0021762'
p1812
aS'GO:0006351'
p1813
aS'GO:0016032'
p1814
asg22
(lp1815
S'GO:0005813'
p1816
aS'GO:0097542'
p1817
aS'GO:0005737'
p1818
aS'GO:0005868'
p1819
aS'GO:0005829'
p1820
aS'GO:0070062'
p1821
aS'GO:0000776'
p1822
aS'GO:0016020'
p1823
aS'GO:0005874'
p1824
aS'GO:0005739'
p1825
aS'GO:0072686'
p1826
aS'GO:0005634'
p1827
aS'GO:0005886'
p1828
aS'GO:0072372'
p1829
asg32
g1788
sg33
(lp1830
S'GO:0003774'
p1831
asg48
S'PIN'
p1832
ssS'P17858'
p1833
(dp1834
g3
(lp1835
S'GO:0061621'
p1836
aS'GO:0005975'
p1837
aS'GO:0030388'
p1838
aS'GO:0006002'
p1839
aS'GO:0006006'
p1840
aS'GO:0006096'
p1841
aS'GO:0046676'
p1842
aS'GO:0051289'
p1843
aS'GO:0051259'
p1844
aS'GO:0009749'
p1845
aS'GO:0044281'
p1846
asg22
(lp1847
S'GO:0005945'
p1848
aS'GO:0005829'
p1849
aS'GO:0070062'
p1850
aS'GO:0016020'
p1851
asg32
g1833
sg33
(lp1852
S'GO:0003872'
p1853
aS'GO:0005524'
p1854
aS'GO:0070061'
p1855
aS'GO:0070095'
p1856
aS'GO:0042802'
p1857
aS'GO:0019900'
p1858
aS'GO:0046872'
p1859
asg48
S'Phosphohexokinase '
p1860
ssS'Q3KQU3'
p1861
(dp1862
g3
(lp1863
S'GO:0000226'
p1864
asg22
(lp1865
S'GO:0005737'
p1866
aS'GO:0015630'
p1867
aS'GO:0005819'
p1868
asg32
g1861
sg33
(lp1869
S'GO:0005198'
p1870
asg48
S'Proline/arginine-rich coiled-coil domain-containing protein 1'
p1871
ssS'P50914'
p1872
(dp1873
g3
(lp1874
S'GO:0034641'
p1875
aS'GO:0044267'
p1876
aS'GO:0010467'
p1877
aS'GO:0000184'
p1878
aS'GO:0042273'
p1879
aS'GO:0006364'
p1880
aS'GO:0001887'
p1881
aS'GO:0016259'
p1882
aS'GO:0044281'
p1883
aS'GO:0006614'
p1884
aS'GO:0006412'
p1885
aS'GO:0006414'
p1886
aS'GO:0006413'
p1887
aS'GO:0006415'
p1888
aS'GO:0019058'
p1889
aS'GO:0016032'
p1890
aS'GO:0019083'
p1891
asg22
(lp1892
S'GO:0005737'
p1893
aS'GO:0005829'
p1894
aS'GO:0022625'
p1895
aS'GO:0070062'
p1896
aS'GO:0016020'
p1897
asg32
g1872
sg33
(lp1898
S'GO:0044822'
p1899
aS'GO:0003723'
p1900
aS'GO:0003735'
p1901
asg48
S'CAG-ISL 7'
p1902
ssS'P42677'
p1903
(dp1904
g3
(lp1905
S'GO:0008283'
p1906
aS'GO:0034641'
p1907
aS'GO:0044267'
p1908
aS'GO:0010467'
p1909
aS'GO:0000278'
p1910
aS'GO:0000184'
p1911
aS'GO:0000028'
p1912
aS'GO:0001887'
p1913
aS'GO:0016259'
p1914
aS'GO:0007264'
p1915
aS'GO:0044281'
p1916
aS'GO:0006614'
p1917
aS'GO:0006412'
p1918
aS'GO:0006414'
p1919
aS'GO:0006413'
p1920
aS'GO:0006415'
p1921
aS'GO:0019058'
p1922
aS'GO:0016032'
p1923
aS'GO:0019083'
p1924
asg22
(lp1925
S'GO:0005829'
p1926
aS'GO:0022627'
p1927
aS'GO:0005634'
p1928
aS'GO:0005840'
p1929
asg32
g1903
sg33
(lp1930
S'GO:0003677'
p1931
aS'GO:0044822'
p1932
aS'GO:0003735'
p1933
aS'GO:0008270'
p1934
asg48
S'MPS-1'
p1935
ssS'P47914'
p1936
(dp1937
g3
(lp1938
S'GO:0034641'
p1939
aS'GO:0044267'
p1940
aS'GO:0002181'
p1941
aS'GO:0007566'
p1942
aS'GO:0010467'
p1943
aS'GO:0000184'
p1944
aS'GO:0001887'
p1945
aS'GO:0016259'
p1946
aS'GO:0044281'
p1947
aS'GO:0006614'
p1948
aS'GO:0006412'
p1949
aS'GO:0006414'
p1950
aS'GO:0006413'
p1951
aS'GO:0006415'
p1952
aS'GO:0019058'
p1953
aS'GO:0016032'
p1954
aS'GO:0019083'
p1955
asg22
(lp1956
S'GO:0005829'
p1957
aS'GO:0022625'
p1958
aS'GO:0016020'
p1959
asg32
g1936
sg33
(lp1960
S'GO:0008201'
p1961
aS'GO:0044822'
p1962
aS'GO:0003723'
p1963
aS'GO:0003735'
p1964
asg48
S'Cell surface heparin-binding protein HIP'
p1965
ssS'Q8WXI9'
p1966
(dp1967
g3
(lp1968
S'GO:0043044'
p1969
aS'GO:0006306'
p1970
aS'GO:0000122'
p1971
aS'GO:0006351'
p1972
asg22
(lp1973
S'GO:0000790'
p1974
aS'GO:0016607'
p1975
aS'GO:0005654'
p1976
aS'GO:0016581'
p1977
aS'GO:0043234'
p1978
asg32
g1966
sg33
(lp1979
S'GO:0043565'
p1980
aS'GO:0003700'
p1981
aS'GO:0008270'
p1982
asg48
S'p66/p68'
p1983
ssS'O14654'
p1984
(dp1985
g3
(lp1986
S'GO:0008286'
p1987
aS'GO:0009967'
p1988
aS'GO:0019216'
p1989
aS'GO:0007165'
p1990
asg22
(lp1991
S'GO:0005829'
p1992
aS'GO:0005886'
p1993
asg32
g1984
sg33
(lp1994
S'GO:0005158'
p1995
aS'GO:0043548'
p1996
aS'GO:0005070'
p1997
aS'GO:0004871'
p1998
asg48
S'pp160'
p1999
ssS'Q13330'
p2000
(dp2001
g3
(lp2002
S'GO:0044267'
p2003
aS'GO:0006325'
p2004
aS'GO:0032922'
p2005
aS'GO:0006302'
p2006
aS'GO:0043153'
p2007
aS'GO:0045475'
p2008
aS'GO:1903507'
p2009
aS'GO:1902499'
p2010
aS'GO:0043687'
p2011
aS'GO:0043161'
p2012
aS'GO:0016925'
p2013
aS'GO:0040029'
p2014
aS'GO:0050727'
p2015
aS'GO:0010212'
p2016
aS'GO:0032496'
p2017
aS'GO:0007165'
p2018
aS'GO:0006351'
p2019
asg22
(lp2020
S'GO:0005737'
p2021
aS'GO:0043231'
p2022
aS'GO:0005874'
p2023
aS'GO:0005635'
p2024
aS'GO:0005654'
p2025
aS'GO:0005634'
p2026
asg32
g2000
sg33
(lp2027
S'GO:0003682'
p2028
aS'GO:0001047'
p2029
aS'GO:0001046'
p2030
aS'GO:0001103'
p2031
aS'GO:0003713'
p2032
aS'GO:0003714'
p2033
aS'GO:0003700'
p2034
aS'GO:0008270'
p2035
asg48
S'Metastasis-associated protein MTA1'
p2036
ssS'Q9Y5V3'
p2037
(dp2038
g3
(lp2039
S'GO:0006915'
p2040
aS'GO:0097190'
p2041
aS'GO:0032922'
p2042
aS'GO:0097191'
p2043
aS'GO:0097192'
p2044
aS'GO:0050680'
p2045
aS'GO:0045892'
p2046
aS'GO:0048011'
p2047
aS'GO:0043065'
p2048
aS'GO:2001235'
p2049
aS'GO:0090190'
p2050
aS'GO:0043406'
p2051
aS'GO:0045893'
p2052
aS'GO:0012501'
p2053
aS'GO:0042981'
p2054
aS'GO:0042752'
p2055
aS'GO:0006357'
p2056
aS'GO:0006355'
p2057
asg22
(lp2058
S'GO:0000785'
p2059
aS'GO:0005737'
p2060
aS'GO:0005634'
p2061
aS'GO:0005886'
p2062
aS'GO:0043234'
p2063
asg32
g2037
sg33
(lp2064
S'GO:0003713'
p2065
asg48
S'Neurotrophin receptor-interacting MAGE homolog'
p2066
ssS'J3KNL6'
p2067
(dp2068
g3
(lp2069
S'GO:0048208'
p2070
asg22
(lp2071
S'GO:0000139'
p2072
asg32
g2067
sg33
(lp2073
sg48
S'Protein transport protein Sec16A '
p2074
ssS'P04792'
p2075
(dp2076
g3
(lp2077
S'GO:0035924'
p2078
aS'GO:0010467'
p2079
aS'GO:0035556'
p2080
aS'GO:0006928'
p2081
aS'GO:0043066'
p2082
aS'GO:1902176'
p2083
aS'GO:0006469'
p2084
aS'GO:0070527'
p2085
aS'GO:0045766'
p2086
aS'GO:0043536'
p2087
aS'GO:2001028'
p2088
aS'GO:0038033'
p2089
aS'GO:0032731'
p2090
aS'GO:0042535'
p2091
aS'GO:0010506'
p2092
aS'GO:0043122'
p2093
aS'GO:0043488'
p2094
aS'GO:0006446'
p2095
aS'GO:0006986'
p2096
aS'GO:0009615'
p2097
aS'GO:0001895'
p2098
aS'GO:0048010'
p2099
asg22
(lp2100
S'GO:0005737'
p2101
aS'GO:0005856'
p2102
aS'GO:0005829'
p2103
aS'GO:0070062'
p2104
aS'GO:0005615'
p2105
aS'GO:0005925'
p2106
aS'GO:0005634'
p2107
aS'GO:0005886'
p2108
aS'GO:0000502'
p2109
aS'GO:0005819'
p2110
aS'GO:0030018'
p2111
asg32
g2075
sg33
(lp2112
S'GO:0042802'
p2113
aS'GO:0044822'
p2114
aS'GO:0019901'
p2115
aS'GO:0005080'
p2116
aS'GO:0008426'
p2117
aS'GO:0043130'
p2118
asg48
S'SRP27'
p2119
ssS'Q13547'
p2120
(dp2121
g3
(lp2122
S'GO:0043044'
p2123
aS'GO:0007596'
p2124
aS'GO:0016568'
p2125
aS'GO:0006325'
p2126
aS'GO:0006338'
p2127
aS'GO:0032922'
p2128
aS'GO:0042733'
p2129
aS'GO:0009913'
p2130
aS'GO:0061029'
p2131
aS'GO:0061198'
p2132
aS'GO:0010467'
p2133
aS'GO:0060789'
p2134
aS'GO:0016575'
p2135
aS'GO:0070932'
p2136
aS'GO:0070933'
p2137
aS'GO:0000278'
p2138
aS'GO:0043922'
p2139
aS'GO:0060766'
p2140
aS'GO:0043066'
p2141
aS'GO:0090090'
p2142
aS'GO:0045786'
p2143
aS'GO:0010629'
p2144
aS'GO:0045814'
p2145
aS'GO:0000122'
p2146
aS'GO:0045892'
p2147
aS'GO:0048011'
p2148
aS'GO:0007219'
p2149
aS'GO:0042475'
p2150
aS'GO:0008284'
p2151
aS'GO:0010870'
p2152
aS'GO:0045944'
p2153
aS'GO:0045893'
p2154
aS'GO:0006476'
p2155
aS'GO:0040029'
p2156
aS'GO:0006367'
p2157
aS'GO:0006351'
p2158
aS'GO:0007179'
p2159
aS'GO:0016032'
p2160
asg22
(lp2161
S'GO:0000785'
p2162
aS'GO:0005737'
p2163
aS'GO:0005829'
p2164
aS'GO:0000118'
p2165
aS'GO:0000790'
p2166
aS'GO:0005654'
p2167
aS'GO:0005634'
p2168
aS'GO:0016581'
p2169
aS'GO:0043234'
p2170
aS'GO:0016580'
p2171
asg32
g2120
sg33
(lp2172
S'GO:0033613'
p2173
aS'GO:0001047'
p2174
aS'GO:0019213'
p2175
aS'GO:0019899'
p2176
aS'GO:0004407'
p2177
aS'GO:0042826'
p2178
aS'GO:0032041'
p2179
aS'GO:0051059'
p2180
aS'GO:0033558'
p2181
aS'GO:0047485'
p2182
aS'GO:0070491'
p2183
aS'GO:0001103'
p2184
aS'GO:0001106'
p2185
aS'GO:0001085'
p2186
aS'GO:0003700'
p2187
aS'GO:0008134'
p2188
aS'GO:0044212'
p2189
aS'GO:0000976'
p2190
asg48
S'3.5.1.98'
p2191
ssS'P36578'
p2192
(dp2193
g3
(lp2194
S'GO:0034641'
p2195
aS'GO:0044267'
p2196
aS'GO:0010467'
p2197
aS'GO:0000184'
p2198
aS'GO:0001887'
p2199
aS'GO:0016259'
p2200
aS'GO:0044281'
p2201
aS'GO:0006614'
p2202
aS'GO:0006412'
p2203
aS'GO:0006414'
p2204
aS'GO:0006413'
p2205
aS'GO:0006415'
p2206
aS'GO:0019058'
p2207
aS'GO:0016032'
p2208
aS'GO:0019083'
p2209
asg22
(lp2210
S'GO:0005737'
p2211
aS'GO:0005829'
p2212
aS'GO:0022625'
p2213
aS'GO:0070062'
p2214
aS'GO:0005925'
p2215
aS'GO:0030529'
p2216
aS'GO:0016020'
p2217
aS'GO:0005730'
p2218
aS'GO:0005634'
p2219
asg32
g2192
sg33
(lp2220
S'GO:0044822'
p2221
aS'GO:0003723'
p2222
aS'GO:0003735'
p2223
asg48
S'60S ribosomal protein L1'
p2224
ssS'P63173'
p2225
(dp2226
g3
(lp2227
S'GO:0034463'
p2228
aS'GO:0048318'
p2229
aS'GO:0034641'
p2230
aS'GO:0044267'
p2231
aS'GO:0010467'
p2232
aS'GO:0042474'
p2233
aS'GO:0000184'
p2234
aS'GO:0001503'
p2235
aS'GO:0006417'
p2236
aS'GO:0022618'
p2237
aS'GO:0001887'
p2238
aS'GO:0016259'
p2239
aS'GO:0007605'
p2240
aS'GO:0001501'
p2241
aS'GO:0044281'
p2242
aS'GO:0006614'
p2243
aS'GO:0006412'
p2244
aS'GO:0006414'
p2245
aS'GO:0006413'
p2246
aS'GO:0006415'
p2247
aS'GO:0019058'
p2248
aS'GO:0016032'
p2249
aS'GO:0019083'
p2250
asg22
(lp2251
S'GO:0005829'
p2252
aS'GO:0022625'
p2253
aS'GO:0033291'
p2254
aS'GO:0005925'
p2255
asg32
g2225
sg33
(lp2256
S'GO:0003723'
p2257
aS'GO:0003735'
p2258
asg48
S'60S ribosomal protein L38'
p2259
ssS'P02533'
p2260
(dp2261
g3
(lp2262
S'GO:0007568'
p2263
aS'GO:0034329'
p2264
aS'GO:0008544'
p2265
aS'GO:0030855'
p2266
aS'GO:0042633'
p2267
aS'GO:0031581'
p2268
aS'GO:0045110'
p2269
aS'GO:0010212'
p2270
aS'GO:0010043'
p2271
asg22
(lp2272
S'GO:0071944'
p2273
aS'GO:0005737'
p2274
aS'GO:0005829'
p2275
aS'GO:0070062'
p2276
aS'GO:0005882'
p2277
aS'GO:0045095'
p2278
aS'GO:0005634'
p2279
asg32
g2260
sg33
(lp2280
S'GO:1990254'
p2281
aS'GO:0005200'
p2282
asg48
S'K14'
p2283
ssS'O60264'
p2284
(dp2285
g3
(lp2286
S'GO:0043044'
p2287
aS'GO:0034080'
p2288
aS'GO:0006338'
p2289
aS'GO:0000183'
p2290
aS'GO:0006281'
p2291
aS'GO:0006352'
p2292
aS'GO:0006302'
p2293
aS'GO:0010467'
p2294
aS'GO:0045814'
p2295
aS'GO:0006334'
p2296
aS'GO:0016584'
p2297
aS'GO:0045815'
p2298
aS'GO:0045893'
p2299
aS'GO:0040029'
p2300
aS'GO:0006357'
p2301
asg22
(lp2302
S'GO:0005677'
p2303
aS'GO:0000793'
p2304
aS'GO:0005730'
p2305
aS'GO:0005654'
p2306
aS'GO:0005634'
p2307
aS'GO:0016589'
p2308
aS'GO:0031213'
p2309
asg32
g2284
sg33
(lp2310
S'GO:0005524'
p2311
aS'GO:0016887'
p2312
aS'GO:0003677'
p2313
aS'GO:0004386'
p2314
asg48
S'hSNF2H'
p2315
ssS'Q86YP4'
p2316
(dp2317
g3
(lp2318
S'GO:0006306'
p2319
aS'GO:0000122'
p2320
aS'GO:0045892'
p2321
aS'GO:0006351'
p2322
asg22
(lp2323
S'GO:0016607'
p2324
aS'GO:0005654'
p2325
aS'GO:0005634'
p2326
aS'GO:0016581'
p2327
asg32
g2316
sg33
(lp2328
S'GO:0030674'
p2329
aS'GO:0043565'
p2330
aS'GO:0003700'
p2331
aS'GO:0008270'
p2332
asg48
S'GATA zinc finger domain-containing protein 2A'
p2333
ssS'Q02543'
p2334
(dp2335
g3
(lp2336
S'GO:0034641'
p2337
aS'GO:0044267'
p2338
aS'GO:0010467'
p2339
aS'GO:0000184'
p2340
aS'GO:0001887'
p2341
aS'GO:0016259'
p2342
aS'GO:0044281'
p2343
aS'GO:0006614'
p2344
aS'GO:0006412'
p2345
aS'GO:0006414'
p2346
aS'GO:0006413'
p2347
aS'GO:0006415'
p2348
aS'GO:0019058'
p2349
aS'GO:0016032'
p2350
aS'GO:0019083'
p2351
asg22
(lp2352
S'GO:0005829'
p2353
aS'GO:0022625'
p2354
aS'GO:0016020'
p2355
asg32
g2334
sg33
(lp2356
S'GO:0044822'
p2357
aS'GO:0003723'
p2358
aS'GO:0003735'
p2359
asg48
S'60S ribosomal protein L18a'
p2360
ssS'Q5JP53'
p2361
(dp2362
g3
(lp2363
S'GO:0007017'
p2364
asg22
(lp2365
S'GO:0005874'
p2366
asg32
g2361
sg33
(lp2367
S'GO:0005525'
p2368
aS'GO:0003924'
p2369
aS'GO:0005200'
p2370
asg48
S'Tubulin beta chain '
p2371
ssS'P61353'
p2372
(dp2373
g3
(lp2374
S'GO:0034641'
p2375
aS'GO:0044267'
p2376
aS'GO:0010467'
p2377
aS'GO:0000184'
p2378
aS'GO:0001887'
p2379
aS'GO:0016259'
p2380
aS'GO:0044281'
p2381
aS'GO:0006614'
p2382
aS'GO:0006412'
p2383
aS'GO:0006414'
p2384
aS'GO:0006413'
p2385
aS'GO:0006415'
p2386
aS'GO:0019058'
p2387
aS'GO:0016032'
p2388
aS'GO:0019083'
p2389
asg22
(lp2390
S'GO:0005829'
p2391
aS'GO:0022625'
p2392
aS'GO:0070062'
p2393
aS'GO:0005925'
p2394
aS'GO:0030529'
p2395
aS'GO:0016020'
p2396
aS'GO:0005634'
p2397
aS'GO:0005840'
p2398
asg32
g2372
sg33
(lp2399
S'GO:0044822'
p2400
aS'GO:0003735'
p2401
asg48
S'60S ribosomal protein L27'
p2402
ssS'P22087'
p2403
(dp2404
g3
(lp2405
S'GO:0000494'
p2406
aS'GO:1990258'
p2407
aS'GO:0001649'
p2408
aS'GO:0031167'
p2409
aS'GO:0006364'
p2410
aS'GO:0048254'
p2411
aS'GO:0008033'
p2412
asg22
(lp2413
S'GO:0031428'
p2414
aS'GO:0015030'
p2415
aS'GO:0001651'
p2416
aS'GO:0070062'
p2417
aS'GO:0001652'
p2418
aS'GO:0016020'
p2419
aS'GO:0005730'
p2420
aS'GO:0005634'
p2421
aS'GO:0032040'
p2422
asg32
g2403
sg33
(lp2423
S'GO:0051117'
p2424
aS'GO:1990259'
p2425
aS'GO:0044822'
p2426
aS'GO:0003723'
p2427
aS'GO:0008649'
p2428
aS'GO:0001094'
p2429
asg48
S'Histone-glutamine methyltransferase'
p2430
ssS'P68371'
p2431
(dp2432
g3
(lp2433
S'GO:0051084'
p2434
aS'GO:0044267'
p2435
aS'GO:0000086'
p2436
aS'GO:0007017'
p2437
aS'GO:0000278'
p2438
aS'GO:0006928'
p2439
aS'GO:0042267'
p2440
aS'GO:0006996'
p2441
aS'GO:0006457'
p2442
asg22
(lp2443
S'GO:0005856'
p2444
aS'GO:0005829'
p2445
aS'GO:0070062'
p2446
aS'GO:1903561'
p2447
aS'GO:0005874'
p2448
aS'GO:0043209'
p2449
aS'GO:0005634'
p2450
asg32
g2431
sg33
(lp2451
S'GO:0003725'
p2452
aS'GO:0005525'
p2453
aS'GO:0003924'
p2454
aS'GO:0042288'
p2455
aS'GO:0005200'
p2456
aS'GO:0051082'
p2457
asg48
S'Tubulin beta-2C chain'
p2458
ssS'P46778'
p2459
(dp2460
g3
(lp2461
S'GO:0034641'
p2462
aS'GO:0044267'
p2463
aS'GO:0010467'
p2464
aS'GO:0000184'
p2465
aS'GO:0001887'
p2466
aS'GO:0016259'
p2467
aS'GO:0044281'
p2468
aS'GO:0006614'
p2469
aS'GO:0006412'
p2470
aS'GO:0006414'
p2471
aS'GO:0006413'
p2472
aS'GO:0006415'
p2473
aS'GO:0019058'
p2474
aS'GO:0016032'
p2475
aS'GO:0019083'
p2476
asg22
(lp2477
S'GO:0005737'
p2478
aS'GO:0005829'
p2479
aS'GO:0022625'
p2480
aS'GO:0016020'
p2481
aS'GO:0005730'
p2482
asg32
g2459
sg33
(lp2483
S'GO:0044822'
p2484
aS'GO:0003723'
p2485
aS'GO:0003735'
p2486
asg48
S'60S ribosomal protein L21'
p2487
ssS'P46779'
p2488
(dp2489
g3
(lp2490
S'GO:0034641'
p2491
aS'GO:0044267'
p2492
aS'GO:0010467'
p2493
aS'GO:0000184'
p2494
aS'GO:1903955'
p2495
aS'GO:1903146'
p2496
aS'GO:0001887'
p2497
aS'GO:0016259'
p2498
aS'GO:0044281'
p2499
aS'GO:0006614'
p2500
aS'GO:0006412'
p2501
aS'GO:0006414'
p2502
aS'GO:0006413'
p2503
aS'GO:0006415'
p2504
aS'GO:0019058'
p2505
aS'GO:0016032'
p2506
aS'GO:0019083'
p2507
asg22
(lp2508
S'GO:0044297'
p2509
aS'GO:0005737'
p2510
aS'GO:0036464'
p2511
aS'GO:0005829'
p2512
aS'GO:0022625'
p2513
aS'GO:0030425'
p2514
aS'GO:0070062'
p2515
aS'GO:0016020'
p2516
asg32
g2488
sg33
(lp2517
S'GO:0044822'
p2518
aS'GO:0003723'
p2519
aS'GO:0003735'
p2520
asg48
S'60S ribosomal protein L28'
p2521
ssS'Q2KHR3'
p2522
(dp2523
g3
(lp2524
sg22
(lp2525
sg32
g2522
sg33
(lp2526
sg48
S'Glutamine and serine-rich protein 1'
p2527
ssS'P18124'
p2528
(dp2529
g3
(lp2530
S'GO:0034641'
p2531
aS'GO:0044267'
p2532
aS'GO:0002181'
p2533
aS'GO:0010467'
p2534
aS'GO:0000463'
p2535
aS'GO:0000184'
p2536
aS'GO:0042273'
p2537
aS'GO:0006364'
p2538
aS'GO:0001887'
p2539
aS'GO:0016259'
p2540
aS'GO:0044281'
p2541
aS'GO:0006614'
p2542
aS'GO:0006412'
p2543
aS'GO:0006414'
p2544
aS'GO:0006413'
p2545
aS'GO:0006415'
p2546
aS'GO:0019058'
p2547
aS'GO:0016032'
p2548
aS'GO:0019083'
p2549
asg22
(lp2550
S'GO:0005737'
p2551
aS'GO:0005829'
p2552
aS'GO:0022625'
p2553
aS'GO:0070062'
p2554
aS'GO:0005925'
p2555
aS'GO:0030529'
p2556
aS'GO:0016020'
p2557
aS'GO:0005730'
p2558
aS'GO:0005634'
p2559
aS'GO:0005844'
p2560
asg32
g2528
sg33
(lp2561
S'GO:0003677'
p2562
aS'GO:0003729'
p2563
aS'GO:0044822'
p2564
aS'GO:0042803'
p2565
aS'GO:0003723'
p2566
aS'GO:0003735'
p2567
asg48
S'60S ribosomal protein L7'
p2568
ssS'A0A087WY61'
p2569
(dp2570
g3
(lp2571
sg22
(lp2572
S'GO:0000139'
p2573
asg32
g2569
sg33
(lp2574
sg48
S'Nuclear mitotic apparatus protein 1 '
p2575
ssS'P43243'
p2576
(dp2577
g3
(lp2578
S'GO:0010608'
p2579
asg22
(lp2580
S'GO:0016020'
p2581
aS'GO:0005637'
p2582
aS'GO:0016363'
p2583
aS'GO:0005654'
p2584
asg32
g2576
sg33
(lp2585
S'GO:0000166'
p2586
aS'GO:0044822'
p2587
aS'GO:0005198'
p2588
aS'GO:0008270'
p2589
asg48
S'Matrin-3'
p2590
ss.
